target datalayout = "e-m:e-p270:32:32-p271:32:32-p272:64:64-i64:64-i128:128-f80:128-n8:16:32:64-S128"
target triple = "x86_64-pc-linux-gnu"

@.str = private unnamed_addr constant [26 x i8] c"../openssl/test/crltest.c\00", align 1
@test_root = internal global ptr null, align 8
@test_leaf = internal global ptr null, align 8
@kBasicCRL = internal global [12 x ptr] [ptr @.str.66, ptr @.str.67, ptr @.str.68, ptr @.str.69, ptr @.str.70, ptr @.str.71, ptr @.str.72, ptr @.str.73, ptr @.str.74, ptr @.str.75, ptr @.str.76, ptr null], align 16
@kRevokedCRL = internal global [13 x ptr] [ptr @.str.66, ptr @.str.77, ptr @.str.68, ptr @.str.78, ptr @.str.79, ptr @.str.80, ptr @.str.81, ptr @.str.82, ptr @.str.83, ptr @.str.84, ptr @.str.85, ptr @.str.76, ptr null], align 16
@.str.60 = private unnamed_addr constant [10 x i8] c"basic_crl\00", align 1
@.str.61 = private unnamed_addr constant [12 x i8] c"revoked_crl\00", align 1
@.str.62 = private unnamed_addr constant [85 x i8] c"verify(test_leaf, test_root, make_CRL_stack(basic_crl, NULL), X509_V_FLAG_CRL_CHECK)\00", align 1
@.str.63 = private unnamed_addr constant [10 x i8] c"X509_V_OK\00", align 1
@.str.64 = private unnamed_addr constant [92 x i8] c"verify(test_leaf, test_root, make_CRL_stack(basic_crl, revoked_crl), X509_V_FLAG_CRL_CHECK)\00", align 1
@.str.65 = private unnamed_addr constant [24 x i8] c"X509_V_ERR_CERT_REVOKED\00", align 1

; Function Attrs: inlinehint nounwind uwtable
define internal ptr @ossl_check_X509_CRL_type(ptr noundef %0) #3 {
  %2 = alloca ptr, align 8
  store ptr %0, ptr %2, align 8, !tbaa !15
  %3 = load ptr, ptr %2, align 8, !tbaa !15
  ret ptr %3
}

; Function Attrs: inlinehint nounwind uwtable
define internal ptr @ossl_check_X509_CRL_sk_type(ptr noundef %0) #3 {
  %2 = alloca ptr, align 8
  store ptr %0, ptr %2, align 8, !tbaa !21
  %3 = load ptr, ptr %2, align 8, !tbaa !21
  ret ptr %3
}

; Function Attrs: nounwind uwtable
define internal ptr @glue2bio(ptr noundef %0, ptr noundef %1) #0 {
  %3 = alloca ptr, align 8
  %4 = alloca ptr, align 8
  %5 = alloca i64, align 8
  store ptr %0, ptr %3, align 8, !tbaa !9
  store ptr %1, ptr %4, align 8, !tbaa !9
  call void @llvm.lifetime.start.p0(i64 8, ptr %5) #4
  store i64 0, ptr %5, align 8, !tbaa !19
  %6 = load ptr, ptr %3, align 8, !tbaa !9
  %7 = call ptr @glue_strings(ptr noundef %6, ptr noundef %5)
  %8 = load ptr, ptr %4, align 8, !tbaa !9
  store ptr %7, ptr %8, align 8, !tbaa !13
  %9 = load ptr, ptr %4, align 8, !tbaa !9
  %10 = load ptr, ptr %9, align 8, !tbaa !13
  %11 = load i64, ptr %5, align 8, !tbaa !19
  %12 = trunc i64 %11 to i32
  %13 = call ptr @BIO_new_mem_buf(ptr noundef %10, i32 noundef %12)
  call void @llvm.lifetime.end.p0(i64 8, ptr %5) #4
  ret ptr %13
}

; Function Attrs: nounwind uwtable
define internal ptr @make_CRL_stack(ptr noundef %0, ptr noundef %1) #0 {
  %3 = alloca ptr, align 8
  %4 = alloca ptr, align 8
  %5 = alloca ptr, align 8
  store ptr %0, ptr %3, align 8, !tbaa !15
  store ptr %1, ptr %4, align 8, !tbaa !15
  call void @llvm.lifetime.start.p0(i64 8, ptr %5) #4
  %6 = call ptr @OPENSSL_sk_new_null()
  store ptr %6, ptr %5, align 8, !tbaa !21
  %7 = load ptr, ptr %5, align 8, !tbaa !21
  %8 = call ptr @ossl_check_X509_CRL_sk_type(ptr noundef %7)
  %9 = load ptr, ptr %3, align 8, !tbaa !15
  %10 = call ptr @ossl_check_X509_CRL_type(ptr noundef %9)
  %11 = call i32 @OPENSSL_sk_push(ptr noundef %8, ptr noundef %10)
  %12 = load ptr, ptr %3, align 8, !tbaa !15
  %13 = call i32 @X509_CRL_up_ref(ptr noundef %12)
  %14 = load ptr, ptr %4, align 8, !tbaa !15
  %15 = icmp ne ptr %14, null
  br i1 %15, label %16, label %24

16:                                               ; preds = %2
  %17 = load ptr, ptr %5, align 8, !tbaa !21
  %18 = call ptr @ossl_check_X509_CRL_sk_type(ptr noundef %17)
  %19 = load ptr, ptr %4, align 8, !tbaa !15
  %20 = call ptr @ossl_check_X509_CRL_type(ptr noundef %19)
  %21 = call i32 @OPENSSL_sk_push(ptr noundef %18, ptr noundef %20)
  %22 = load ptr, ptr %4, align 8, !tbaa !15
  %23 = call i32 @X509_CRL_up_ref(ptr noundef %22)
  br label %24

24:                                               ; preds = %16, %2
  %25 = load ptr, ptr %5, align 8, !tbaa !21
  call void @llvm.lifetime.end.p0(i64 8, ptr %5) #4
  ret ptr %25
}

; Function Attrs: nounwind uwtable
define internal ptr @CRL_from_strings(ptr noundef %0) #0 {
  %2 = alloca ptr, align 8
  %3 = alloca ptr, align 8
  %4 = alloca ptr, align 8
  %5 = alloca ptr, align 8
  %6 = alloca ptr, align 8
  %7 = alloca i32, align 4
  store ptr %0, ptr %3, align 8, !tbaa !9
  call void @llvm.lifetime.start.p0(i64 8, ptr %4) #4
  call void @llvm.lifetime.start.p0(i64 8, ptr %5) #4
  call void @llvm.lifetime.start.p0(i64 8, ptr %6) #4
  %8 = load ptr, ptr %3, align 8, !tbaa !9
  %9 = call ptr @glue2bio(ptr noundef %8, ptr noundef %5)
  store ptr %9, ptr %6, align 8, !tbaa !11
  %10 = load ptr, ptr %6, align 8, !tbaa !11
  %11 = icmp eq ptr %10, null
  br i1 %11, label %12, label %14

12:                                               ; preds = %1
  %13 = load ptr, ptr %5, align 8, !tbaa !13
  call void @CRYPTO_free(ptr noundef %13, ptr noundef @.str, i32 noundef 215)
  store ptr null, ptr %2, align 8
  store i32 1, ptr %7, align 4
  br label %21

14:                                               ; preds = %1
  %15 = load ptr, ptr %6, align 8, !tbaa !11
  %16 = call ptr @PEM_read_bio_X509_CRL(ptr noundef %15, ptr noundef null, ptr noundef null, ptr noundef null)
  store ptr %16, ptr %4, align 8, !tbaa !15
  %17 = load ptr, ptr %5, align 8, !tbaa !13
  call void @CRYPTO_free(ptr noundef %17, ptr noundef @.str, i32 noundef 221)
  %18 = load ptr, ptr %6, align 8, !tbaa !11
  %19 = call i32 @BIO_free(ptr noundef %18)
  %20 = load ptr, ptr %4, align 8, !tbaa !15
  store ptr %20, ptr %2, align 8
  store i32 1, ptr %7, align 4
  br label %21

21:                                               ; preds = %14, %12
  call void @llvm.lifetime.end.p0(i64 8, ptr %6) #4
  call void @llvm.lifetime.end.p0(i64 8, ptr %5) #4
  call void @llvm.lifetime.end.p0(i64 8, ptr %4) #4
  %22 = load ptr, ptr %2, align 8
  ret ptr %22
}

; Function Attrs: nounwind uwtable
define internal i32 @test_basic_crl() #0 {
  %1 = alloca ptr, align 8
  %2 = alloca ptr, align 8
  %3 = alloca i32, align 4
  call void @llvm.lifetime.start.p0(i64 8, ptr %1) #4
  %4 = call ptr @CRL_from_strings(ptr noundef @kBasicCRL)
  store ptr %4, ptr %1, align 8, !tbaa !15
  call void @llvm.lifetime.start.p0(i64 8, ptr %2) #4
  %5 = call ptr @CRL_from_strings(ptr noundef @kRevokedCRL)
  store ptr %5, ptr %2, align 8, !tbaa !15
  call void @llvm.lifetime.start.p0(i64 4, ptr %3) #4
  %6 = load ptr, ptr %1, align 8, !tbaa !15
  %7 = call i32 @test_ptr(ptr noundef @.str, i32 noundef 320, ptr noundef @.str.60, ptr noundef %6)
  %8 = icmp ne i32 %7, 0
  br i1 %8, label %9, label %30

9:                                                ; preds = %0
  %10 = load ptr, ptr %2, align 8, !tbaa !15
  %11 = call i32 @test_ptr(ptr noundef @.str, i32 noundef 321, ptr noundef @.str.61, ptr noundef %10)
  %12 = icmp ne i32 %11, 0
  br i1 %12, label %13, label %30

13:                                               ; preds = %9
  %14 = load ptr, ptr @test_leaf, align 8, !tbaa !4
  %15 = load ptr, ptr @test_root, align 8, !tbaa !4
  %16 = load ptr, ptr %1, align 8, !tbaa !15
  %17 = call ptr @make_CRL_stack(ptr noundef %16, ptr noundef null)
  %18 = call i32 @verify(ptr noundef %14, ptr noundef %15, ptr noundef %17, i64 noundef 4)
  %19 = call i32 @test_int_eq(ptr noundef @.str, i32 noundef 324, ptr noundef @.str.62, ptr noundef @.str.63, i32 noundef %18, i32 noundef 0)
  %20 = icmp ne i32 %19, 0
  br i1 %20, label %21, label %30

21:                                               ; preds = %13
  %22 = load ptr, ptr @test_leaf, align 8, !tbaa !4
  %23 = load ptr, ptr @test_root, align 8, !tbaa !4
  %24 = load ptr, ptr %1, align 8, !tbaa !15
  %25 = load ptr, ptr %2, align 8, !tbaa !15
  %26 = call ptr @make_CRL_stack(ptr noundef %24, ptr noundef %25)
  %27 = call i32 @verify(ptr noundef %22, ptr noundef %23, ptr noundef %26, i64 noundef 4)
  %28 = call i32 @test_int_eq(ptr noundef @.str, i32 noundef 327, ptr noundef @.str.64, ptr noundef @.str.65, i32 noundef %27, i32 noundef 23)
  %29 = icmp ne i32 %28, 0
  br label %30

30:                                               ; preds = %21, %13, %9, %0
  %31 = phi i1 [ false, %13 ], [ false, %9 ], [ false, %0 ], [ %29, %21 ]
  %32 = zext i1 %31 to i32
  store i32 %32, ptr %3, align 4, !tbaa !17
  %33 = load ptr, ptr %1, align 8, !tbaa !15
  call void @X509_CRL_free(ptr noundef %33)
  %34 = load ptr, ptr %2, align 8, !tbaa !15
  call void @X509_CRL_free(ptr noundef %34)
  %35 = load i32, ptr %3, align 4, !tbaa !17
  call void @llvm.lifetime.end.p0(i64 4, ptr %3) #4
  call void @llvm.lifetime.end.p0(i64 8, ptr %2) #4
  call void @llvm.lifetime.end.p0(i64 8, ptr %1) #4
  ret i32 %35
}