; Function Attrs: nounwind uwtable
define internal range(i32 0, 2) i32 @test_basic_crl() #0 {
  %1 = alloca i64, align 8
  %2 = alloca i64, align 8
  call void @llvm.lifetime.start.p0(i64 8, ptr nonnull %2) #3
  store i64 0, ptr %2, align 8, !tbaa !4
  %3 = call ptr @glue_strings(ptr noundef nonnull @kBasicCRL, ptr noundef nonnull %2) #3
  %4 = load i64, ptr %2, align 8, !tbaa !4
  %5 = trunc i64 %4 to i32
  %6 = call ptr @BIO_new_mem_buf(ptr noundef %3, i32 noundef %5) #3
  call void @llvm.lifetime.end.p0(i64 8, ptr nonnull %2) #3
  %7 = icmp eq ptr %6, null
  br i1 %7, label %8, label %9

8:                                                ; preds = %0
  call void @CRYPTO_free(ptr noundef %3, ptr noundef nonnull @.str, i32 noundef 215) #3
  br label %CRL_from_strings.exit

9:                                                ; preds = %0
  %10 = call ptr @PEM_read_bio_X509_CRL(ptr noundef nonnull %6, ptr noundef null, ptr noundef null, ptr noundef null) #3
  call void @CRYPTO_free(ptr noundef %3, ptr noundef nonnull @.str, i32 noundef 221) #3
  %11 = call i32 @BIO_free(ptr noundef nonnull %6) #3
  br label %CRL_from_strings.exit

CRL_from_strings.exit:                            ; preds = %8, %9
  %.0.i = phi ptr [ null, %8 ], [ %10, %9 ]
  call void @llvm.lifetime.start.p0(i64 8, ptr nonnull %1) #3
  store i64 0, ptr %1, align 8, !tbaa !4
  %12 = call ptr @glue_strings(ptr noundef nonnull @kRevokedCRL, ptr noundef nonnull %1) #3
  %13 = load i64, ptr %1, align 8, !tbaa !4
  %14 = trunc i64 %13 to i32
  %15 = call ptr @BIO_new_mem_buf(ptr noundef %12, i32 noundef %14) #3
  call void @llvm.lifetime.end.p0(i64 8, ptr nonnull %1) #3
  %16 = icmp eq ptr %15, null
  br i1 %16, label %17, label %18

17:                                               ; preds = %CRL_from_strings.exit
  call void @CRYPTO_free(ptr noundef %12, ptr noundef nonnull @.str, i32 noundef 215) #3
  br label %CRL_from_strings.exit10

18:                                               ; preds = %CRL_from_strings.exit
  %19 = call ptr @PEM_read_bio_X509_CRL(ptr noundef nonnull %15, ptr noundef null, ptr noundef null, ptr noundef null) #3
  call void @CRYPTO_free(ptr noundef %12, ptr noundef nonnull @.str, i32 noundef 221) #3
  %20 = call i32 @BIO_free(ptr noundef nonnull %15) #3
  br label %CRL_from_strings.exit10

CRL_from_strings.exit10:                          ; preds = %17, %18
  %.0.i9 = phi ptr [ null, %17 ], [ %19, %18 ]
  %21 = call i32 @test_ptr(ptr noundef nonnull @.str, i32 noundef 320, ptr noundef nonnull @.str.60, ptr noundef %.0.i) #3
  %.not = icmp eq i32 %21, 0
  br i1 %.not, label %45, label %22

22:                                               ; preds = %CRL_from_strings.exit10
  %23 = call i32 @test_ptr(ptr noundef nonnull @.str, i32 noundef 321, ptr noundef nonnull @.str.61, ptr noundef %.0.i9) #3
  %.not7 = icmp eq i32 %23, 0
  br i1 %.not7, label %45, label %24

24:                                               ; preds = %22
  %25 = load ptr, ptr @test_leaf, align 8, !tbaa !8
  %26 = load ptr, ptr @test_root, align 8, !tbaa !8
  %27 = call ptr @OPENSSL_sk_new_null() #3
  %28 = call i32 @OPENSSL_sk_push(ptr noundef %27, ptr noundef %.0.i) #3
  %29 = call i32 @X509_CRL_up_ref(ptr noundef %.0.i) #3
  %30 = call fastcc i32 @verify(ptr noundef %25, ptr noundef %26, ptr noundef %27)
  %31 = call i32 @test_int_eq(ptr noundef nonnull @.str, i32 noundef 324, ptr noundef nonnull @.str.62, ptr noundef nonnull @.str.63, i32 noundef %30, i32 noundef 0) #3
  %.not8 = icmp eq i32 %31, 0
  br i1 %.not8, label %45, label %32

32:                                               ; preds = %24
  %33 = load ptr, ptr @test_leaf, align 8, !tbaa !8
  %34 = load ptr, ptr @test_root, align 8, !tbaa !8
  %35 = call ptr @OPENSSL_sk_new_null() #3
  %36 = call i32 @OPENSSL_sk_push(ptr noundef %35, ptr noundef %.0.i) #3
  %37 = call i32 @X509_CRL_up_ref(ptr noundef %.0.i) #3
  %.not.i = icmp eq ptr %.0.i9, null
  br i1 %.not.i, label %make_CRL_stack.exit, label %38

38:                                               ; preds = %32
  %39 = call i32 @OPENSSL_sk_push(ptr noundef %35, ptr noundef nonnull %.0.i9) #3
  %40 = call i32 @X509_CRL_up_ref(ptr noundef nonnull %.0.i9) #3
  br label %make_CRL_stack.exit

make_CRL_stack.exit:                              ; preds = %32, %38
  %41 = call fastcc i32 @verify(ptr noundef %33, ptr noundef %34, ptr noundef %35)
  %42 = call i32 @test_int_eq(ptr noundef nonnull @.str, i32 noundef 327, ptr noundef nonnull @.str.64, ptr noundef nonnull @.str.65, i32 noundef %41, i32 noundef 23) #3
  %43 = icmp ne i32 %42, 0
  %44 = zext i1 %43 to i32
  br label %45

45:                                               ; preds = %make_CRL_stack.exit, %24, %22, %CRL_from_strings.exit10
  %46 = phi i32 [ 0, %24 ], [ 0, %22 ], [ 0, %CRL_from_strings.exit10 ], [ %44, %make_CRL_stack.exit ]
  call void @X509_CRL_free(ptr noundef %.0.i) #3
  call void @X509_CRL_free(ptr noundef %.0.i9) #3
  ret i32 %46
}